; Function Attrs: mustprogress uwtable
define hidden void @_ZN4cvc58internal11NodeManager17mkFiniteFieldTypeERKNS0_7IntegerE(ptr noalias sret(%"class.cvc5::internal::TypeNode") align 8 %agg.result, ptr noundef nonnull align 8 dereferenceable(3360) %this, ptr noundef nonnull align 8 dereferenceable(16) %modulus) local_unnamed_addr #3 align 2 personality ptr @__gxx_personality_v0 {
entry:
  %ref.tmp = alloca %"struct.cvc5::internal::FfSize", align 8
  %agg.tmp = alloca %"class.cvc5::internal::Integer", align 8
  call void @__gmpz_init_set(ptr noundef nonnull %agg.tmp, ptr noundef nonnull %modulus)
  invoke void @__gmpz_init_set(ptr noundef nonnull %ref.tmp, ptr noundef nonnull %agg.tmp)
          to label %invoke.cont unwind label %lpad

invoke.cont:                                      ; preds = %entry
  invoke void @_ZN4cvc58internal11NodeManager15mkConstInternalINS0_8TypeNodeENS0_6FfSizeEEET_NS0_4kind6Kind_tERKT0_(ptr sret(%"class.cvc5::internal::TypeNode") align 8 %agg.result, ptr noundef nonnull align 8 dereferenceable(3360) %this, i32 noundef 144, ptr noundef nonnull align 8 dereferenceable(16) %ref.tmp)
          to label %invoke.cont3 unwind label %lpad2

invoke.cont3:                                     ; preds = %invoke.cont
  invoke void @__gmpz_clear(ptr noundef nonnull %ref.tmp)
          to label %_ZN4cvc58internal6FfSizeD2Ev.exit unwind label %terminate.lpad.i.i.i

terminate.lpad.i.i.i:                             ; preds = %invoke.cont3
  %0 = landingpad { ptr, i32 }
          catch ptr null
  %1 = extractvalue { ptr, i32 } %0, 0
  call void @__clang_call_terminate(ptr %1) #28
  unreachable

_ZN4cvc58internal6FfSizeD2Ev.exit:                ; preds = %invoke.cont3
  invoke void @__gmpz_clear(ptr noundef nonnull %agg.tmp)
          to label %_ZN4cvc58internal7IntegerD2Ev.exit unwind label %terminate.lpad.i.i

terminate.lpad.i.i:                               ; preds = %_ZN4cvc58internal6FfSizeD2Ev.exit
  %2 = landingpad { ptr, i32 }
          catch ptr null
  %3 = extractvalue { ptr, i32 } %2, 0
  call void @__clang_call_terminate(ptr %3) #28
  unreachable

_ZN4cvc58internal7IntegerD2Ev.exit:               ; preds = %_ZN4cvc58internal6FfSizeD2Ev.exit
  ret void

lpad:                                             ; preds = %entry
  %4 = landingpad { ptr, i32 }
          cleanup
  br label %ehcleanup

lpad2:                                            ; preds = %invoke.cont
  %5 = landingpad { ptr, i32 }
          cleanup
  invoke void @__gmpz_clear(ptr noundef nonnull %ref.tmp)
          to label %ehcleanup unwind label %terminate.lpad.i.i.i2

terminate.lpad.i.i.i2:                            ; preds = %lpad2
  %6 = landingpad { ptr, i32 }
          catch ptr null
  %7 = extractvalue { ptr, i32 } %6, 0
  call void @__clang_call_terminate(ptr %7) #28
  unreachable

ehcleanup:                                        ; preds = %lpad2, %lpad
  %.pn = phi { ptr, i32 } [ %4, %lpad ], [ %5, %lpad2 ]
  invoke void @__gmpz_clear(ptr noundef nonnull %agg.tmp)
          to label %_ZN4cvc58internal7IntegerD2Ev.exit5 unwind label %terminate.lpad.i.i4

terminate.lpad.i.i4:                              ; preds = %ehcleanup
  %8 = landingpad { ptr, i32 }
          catch ptr null
  %9 = extractvalue { ptr, i32 } %8, 0
  call void @__clang_call_terminate(ptr %9) #28
  unreachable

_ZN4cvc58internal7IntegerD2Ev.exit5:              ; preds = %ehcleanup
  resume { ptr, i32 } %.pn
}